; Function Attrs: nounwind uwtable
define noalias noundef ptr @Bac_PtrTransformBox(ptr noundef readonly captures(none) %0, ptr noundef readonly %1) local_unnamed_addr #0 {
  %3 = getelementptr i8, ptr %0, i64 4
  %.val13 = load i32, ptr %3, align 4
  %4 = tail call noalias dereferenceable_or_null(16) ptr @malloc(i64 noundef 16) #15
  %5 = getelementptr inbounds nuw i8, ptr %4, i64 4
  store i32 0, ptr %5, align 4
  store i32 %.val13, ptr %4, align 8
  %.not.i = icmp eq i32 %.val13, 0
  br i1 %.not.i, label %Vec_PtrAllocExact.exit.thread, label %Vec_PtrAllocExact.exit

Vec_PtrAllocExact.exit.thread:                    ; preds = %2
  %6 = getelementptr inbounds nuw i8, ptr %4, i64 8
  store ptr null, ptr %6, align 8
  br label %.critedge

Vec_PtrAllocExact.exit:                           ; preds = %2
  %7 = sext i32 %.val13 to i64
  %8 = shl nsw i64 %7, 3
  %9 = tail call noalias ptr @malloc(i64 noundef %8) #15
  %10 = getelementptr inbounds nuw i8, ptr %4, i64 8
  store ptr %9, ptr %10, align 8
  %11 = icmp sgt i32 %.val13, 0
  br i1 %11, label %.lr.ph, label %.critedge

.lr.ph:                                           ; preds = %Vec_PtrAllocExact.exit
  %12 = getelementptr i8, ptr %0, i64 8
  br label %13

13:                                               ; preds = %.lr.ph, %Vec_PtrPush.exit
  %indvars.iv = phi i64 [ 0, %.lr.ph ], [ %indvars.iv.next, %Vec_PtrPush.exit ]
  %.val = load ptr, ptr %12, align 8
  %14 = getelementptr inbounds nuw ptr, ptr %.val, i64 %indvars.iv
  %15 = load ptr, ptr %14, align 8
  %.not.i14 = icmp eq ptr %15, null
  br i1 %.not.i14, label %Abc_UtilStrsav.exit, label %16

16:                                               ; preds = %13
  %17 = tail call i64 @strlen(ptr noundef nonnull readonly dereferenceable(1) %15) #16
  %18 = add i64 %17, 1
  %19 = tail call noalias ptr @malloc(i64 noundef %18) #15
  %20 = tail call ptr @strcpy(ptr noundef nonnull dereferenceable(1) %19, ptr noundef nonnull readonly dereferenceable(1) %15) #14
  br label %Abc_UtilStrsav.exit

Abc_UtilStrsav.exit:                              ; preds = %13, %16
  %21 = phi ptr [ %19, %16 ], [ null, %13 ]
  %22 = load i32, ptr %5, align 4
  %23 = load i32, ptr %4, align 8
  %24 = icmp eq i32 %22, %23
  br i1 %24, label %25, label %.Vec_PtrGrow.exit11_crit_edge.i

.Vec_PtrGrow.exit11_crit_edge.i:                  ; preds = %Abc_UtilStrsav.exit
  %.pre.i = load ptr, ptr %10, align 8
  br label %Vec_PtrPush.exit

25:                                               ; preds = %Abc_UtilStrsav.exit
  %26 = icmp slt i32 %22, 16
  br i1 %26, label %27, label %34

27:                                               ; preds = %25
  %28 = load ptr, ptr %10, align 8
  %.not9.i.i = icmp eq ptr %28, null
  br i1 %.not9.i.i, label %31, label %29

29:                                               ; preds = %27
  %30 = tail call dereferenceable_or_null(128) ptr @realloc(ptr noundef nonnull %28, i64 noundef 128) #17
  br label %Vec_PtrGrow.exit.i

31:                                               ; preds = %27
  %32 = tail call noalias dereferenceable_or_null(128) ptr @malloc(i64 noundef 128) #15
  br label %Vec_PtrGrow.exit.i

Vec_PtrGrow.exit.i:                               ; preds = %31, %29
  %33 = phi ptr [ %30, %29 ], [ %32, %31 ]
  store ptr %33, ptr %10, align 8
  store i32 16, ptr %4, align 8
  br label %Vec_PtrPush.exit

34:                                               ; preds = %25
  %35 = shl nuw nsw i32 %22, 1
  %36 = load ptr, ptr %10, align 8
  %.not9.i10.i = icmp eq ptr %36, null
  %37 = zext nneg i32 %35 to i64
  %38 = shl nuw nsw i64 %37, 3
  br i1 %.not9.i10.i, label %41, label %39

39:                                               ; preds = %34
  %40 = tail call ptr @realloc(ptr noundef nonnull %36, i64 noundef %38) #17
  br label %43

41:                                               ; preds = %34
  %42 = tail call noalias ptr @malloc(i64 noundef %38) #15
  br label %43

43:                                               ; preds = %41, %39
  %44 = phi ptr [ %40, %39 ], [ %42, %41 ]
  store ptr %44, ptr %10, align 8
  store i32 %35, ptr %4, align 8
  br label %Vec_PtrPush.exit

Vec_PtrPush.exit:                                 ; preds = %.Vec_PtrGrow.exit11_crit_edge.i, %Vec_PtrGrow.exit.i, %43
  %45 = phi ptr [ %.pre.i, %.Vec_PtrGrow.exit11_crit_edge.i ], [ %44, %43 ], [ %33, %Vec_PtrGrow.exit.i ]
  %46 = add nsw i32 %22, 1
  store i32 %46, ptr %5, align 4
  %47 = sext i32 %22 to i64
  %48 = getelementptr inbounds ptr, ptr %45, i64 %47
  store ptr %21, ptr %48, align 8
  %indvars.iv.next = add nuw nsw i64 %indvars.iv, 1
  %.val12 = load i32, ptr %3, align 4
  %49 = sext i32 %.val12 to i64
  %50 = icmp slt i64 %indvars.iv.next, %49
  br i1 %50, label %13, label %.critedge, !llvm.loop !19

.critedge:                                        ; preds = %Vec_PtrPush.exit, %Vec_PtrAllocExact.exit.thread, %Vec_PtrAllocExact.exit
  %.not = icmp eq ptr %1, null
  br i1 %.not, label %52, label %51

51:                                               ; preds = %.critedge
  tail call void @Bac_PtrUpdateBox(ptr noundef nonnull %4, ptr noundef nonnull %1)
  br label %52

52:                                               ; preds = %51, %.critedge
  ret ptr %4
}